target datalayout = "e-m:e-p270:32:32-p271:32:32-p272:64:64-i64:64-i128:128-f80:128-n8:16:32:64-S128"
target triple = "x86_64-pc-linux-gnu"

%"class.std::__cxx11::basic_string" = type { %"struct.std::__cxx11::basic_string<char>::_Alloc_hider", i64, %union.anon }
%"struct.std::__cxx11::basic_string<char>::_Alloc_hider" = type { ptr }
%union.anon = type { i64, [8 x i8] }
%"class.std::optional.67" = type { %"struct.std::_Optional_base.68" }
%"struct.std::_Optional_base.68" = type { %"struct.std::_Optional_payload.70" }
%"struct.std::_Optional_payload.70" = type { %"struct.std::_Optional_payload.base.74", [7 x i8] }
%"struct.std::_Optional_payload.base.74" = type { %"struct.std::_Optional_payload_base.base.73" }
%"struct.std::_Optional_payload_base.base.73" = type <{ %"union.std::_Optional_payload_base<std::__cxx11::basic_string<char>>::_Storage", i8 }>
%"union.std::_Optional_payload_base<std::__cxx11::basic_string<char>>::_Storage" = type { %"class.std::__cxx11::basic_string" }
%"class.std::__shared_count" = type { ptr }
%"class.std::shared_ptr.41" = type { %"class.std::__shared_ptr.42" }
%"class.std::__shared_ptr.42" = type { ptr, %"class.std::__shared_count" }
%"class.nix::BackedStringView" = type { %"class.std::variant" }
%"class.std::variant" = type { %"struct.std::__detail::__variant::_Variant_base.base", [7 x i8] }
%"struct.std::__detail::__variant::_Variant_base.base" = type { %"struct.std::__detail::__variant::_Move_assign_base.base" }
%"struct.std::__detail::__variant::_Move_assign_base.base" = type { %"struct.std::__detail::__variant::_Copy_assign_base.base" }
%"struct.std::__detail::__variant::_Copy_assign_base.base" = type { %"struct.std::__detail::__variant::_Move_ctor_base.base" }
%"struct.std::__detail::__variant::_Move_ctor_base.base" = type { %"struct.std::__detail::__variant::_Copy_ctor_base.base" }
%"struct.std::__detail::__variant::_Copy_ctor_base.base" = type { %"struct.std::__detail::__variant::_Variant_storage.base" }
%"struct.std::__detail::__variant::_Variant_storage.base" = type <{ %"union.std::__detail::__variant::_Variadic_union", i8 }>
%"union.std::__detail::__variant::_Variadic_union" = type { %"union.std::__detail::__variant::_Variadic_union.77", [16 x i8] }
%"union.std::__detail::__variant::_Variadic_union.77" = type { %"struct.std::__detail::__variant::_Uninitialized.78" }
%"struct.std::__detail::__variant::_Uninitialized.78" = type { %"class.std::basic_string_view" }
%"class.std::basic_string_view" = type { i64, ptr }
%"struct.nix::Sink" = type { ptr }
%"struct.nix::Source" = type { ptr }
%"class.std::optional.83" = type { %"struct.std::_Optional_base.84" }
%"struct.std::_Optional_base.84" = type { %"struct.std::_Optional_payload.86" }
%"struct.std::_Optional_payload.86" = type { %"struct.std::_Optional_payload_base.87" }
%"struct.std::_Optional_payload_base.87" = type { %"union.std::_Optional_payload_base<nix::TrustedFlag>::_Storage", i8 }
%"union.std::_Optional_payload_base<nix::TrustedFlag>::_Storage" = type { %"struct.std::_Optional_payload_base<nix::TrustedFlag>::_Empty_byte" }
%"struct.std::_Optional_payload_base<nix::TrustedFlag>::_Empty_byte" = type { i8 }
%"struct.nix::RemoteStore::Connection" = type { ptr, %"struct.nix::FdSink", %"struct.nix::FdSource", i32, %"class.std::optional.83", [2 x i8], %"class.std::optional.67", %"class.std::chrono::time_point" }
%"struct.nix::FdSink" = type <{ %"struct.nix::BufferedSink", i32, [4 x i8], i64, i8, [7 x i8] }>
%"struct.nix::BufferedSink" = type { %"struct.nix::Sink", i64, i64, %"class.std::unique_ptr" }
%"class.std::unique_ptr" = type { %"struct.std::__uniq_ptr_data" }
%"struct.std::__uniq_ptr_data" = type { %"class.std::__uniq_ptr_impl" }
%"class.std::__uniq_ptr_impl" = type { %"class.std::tuple" }
%"class.std::tuple" = type { %"struct.std::_Tuple_impl" }
%"struct.std::_Tuple_impl" = type { %"struct.std::_Head_base.82" }
%"struct.std::_Head_base.82" = type { ptr }
%"struct.nix::FdSource" = type <{ %"struct.nix::BufferedSource", i32, [4 x i8], i64, %"class.nix::BackedStringView", i8, [7 x i8] }>
%"struct.nix::BufferedSource" = type { %"struct.nix::Source", i64, i64, i64, %"class.std::unique_ptr" }
%"class.std::chrono::time_point" = type { %"class.std::chrono::duration" }
%"class.std::chrono::duration" = type { i64 }
%"struct.nix::RemoteStore::ConnectionHandle" = type { %"class.nix::Pool<nix::RemoteStore::Connection>::Handle", i8, [7 x i8] }
%"class.nix::Pool<nix::RemoteStore::Connection>::Handle" = type <{ ptr, %"class.std::shared_ptr.41", i8, [7 x i8] }>

@_ZN3nix11RemoteStore16ConnectionHandleD1Ev = unnamed_addr alias void (ptr), ptr @_ZN3nix11RemoteStore16ConnectionHandleD2Ev

; Function Attrs: mustprogress nounwind uwtable
define linkonce_odr noundef ptr @_ZNKSt12__shared_ptrIN3nix11RemoteStore10ConnectionELN9__gnu_cxx12_Lock_policyE2EE3getEv(ptr noundef nonnull align 8 dereferenceable(16) %0) #2 comdat align 2 {
  %2 = alloca ptr, align 8
  store ptr %0, ptr %2, align 8
  %3 = load ptr, ptr %2, align 8
  %4 = getelementptr inbounds %"class.std::__shared_ptr.42", ptr %3, i32 0, i32 0
  %5 = load ptr, ptr %4, align 8
  ret ptr %5
}

; Function Attrs: mustprogress nounwind uwtable
define linkonce_odr noundef ptr @_ZNKSt19__shared_ptr_accessIN3nix11RemoteStore10ConnectionELN9__gnu_cxx12_Lock_policyE2ELb0ELb0EE6_M_getEv(ptr noundef nonnull align 1 dereferenceable(1) %0) #2 comdat align 2 {
  %2 = alloca ptr, align 8
  store ptr %0, ptr %2, align 8
  %3 = load ptr, ptr %2, align 8
  %4 = call noundef ptr @_ZNKSt12__shared_ptrIN3nix11RemoteStore10ConnectionELN9__gnu_cxx12_Lock_policyE2EE3getEv(ptr noundef nonnull align 8 dereferenceable(16) %3) #1
  ret ptr %4
}

; Function Attrs: mustprogress nounwind uwtable
define linkonce_odr noundef ptr @_ZNKSt7__cxx1112basic_stringIcSt11char_traitsIcESaIcEE7_M_dataEv(ptr noundef nonnull align 8 dereferenceable(32) %0) #2 comdat align 2 {
  %2 = alloca ptr, align 8
  store ptr %0, ptr %2, align 8
  %3 = load ptr, ptr %2, align 8
  %4 = getelementptr inbounds %"class.std::__cxx11::basic_string", ptr %3, i32 0, i32 0
  %5 = getelementptr inbounds %"struct.std::__cxx11::basic_string<char>::_Alloc_hider", ptr %4, i32 0, i32 0
  %6 = load ptr, ptr %5, align 8
  ret ptr %6
}

; Function Attrs: mustprogress nounwind uwtable
define linkonce_odr noundef nonnull align 8 dereferenceable(224) ptr @_ZNKSt19__shared_ptr_accessIN3nix11RemoteStore10ConnectionELN9__gnu_cxx12_Lock_policyE2ELb0ELb0EEdeEv(ptr noundef nonnull align 1 dereferenceable(1) %0) #2 comdat align 2 {
  %2 = alloca ptr, align 8
  store ptr %0, ptr %2, align 8
  %3 = load ptr, ptr %2, align 8
  br label %4

4:                                                ; preds = %1
  br label %5

5:                                                ; preds = %4
  br label %6

6:                                                ; preds = %5
  %7 = call noundef ptr @_ZNKSt19__shared_ptr_accessIN3nix11RemoteStore10ConnectionELN9__gnu_cxx12_Lock_policyE2ELb0ELb0EE6_M_getEv(ptr noundef nonnull align 1 dereferenceable(1) %3) #1
  ret ptr %7
}

; Function Attrs: mustprogress nounwind uwtable
define linkonce_odr void @_ZNSt17basic_string_viewIcSt11char_traitsIcEEC2EPKcm(ptr noundef nonnull align 8 dereferenceable(16) %0, ptr noundef %1, i64 noundef %2) unnamed_addr #2 comdat align 2 {
  %4 = alloca ptr, align 8
  %5 = alloca ptr, align 8
  %6 = alloca i64, align 8
  store ptr %0, ptr %4, align 8
  store ptr %1, ptr %5, align 8
  store i64 %2, ptr %6, align 8
  %7 = load ptr, ptr %4, align 8
  %8 = getelementptr inbounds %"class.std::basic_string_view", ptr %7, i32 0, i32 0
  %9 = load i64, ptr %6, align 8
  store i64 %9, ptr %8, align 8
  %10 = getelementptr inbounds %"class.std::basic_string_view", ptr %7, i32 0, i32 1
  %11 = load ptr, ptr %5, align 8
  store ptr %11, ptr %10, align 8
  ret void
}

; Function Attrs: mustprogress nounwind uwtable
define linkonce_odr noundef i64 @_ZNKSt7__cxx1112basic_stringIcSt11char_traitsIcESaIcEE4sizeEv(ptr noundef nonnull align 8 dereferenceable(32) %0) #2 comdat align 2 {
  %2 = alloca ptr, align 8
  store ptr %0, ptr %2, align 8
  %3 = load ptr, ptr %2, align 8
  %4 = getelementptr inbounds %"class.std::__cxx11::basic_string", ptr %3, i32 0, i32 1
  %5 = load i64, ptr %4, align 8
  ret i64 %5
}

; Function Attrs: mustprogress nounwind uwtable
define linkonce_odr noundef ptr @_ZNKSt7__cxx1112basic_stringIcSt11char_traitsIcESaIcEE4dataEv(ptr noundef nonnull align 8 dereferenceable(32) %0) #2 comdat align 2 {
  %2 = alloca ptr, align 8
  store ptr %0, ptr %2, align 8
  %3 = load ptr, ptr %2, align 8
  %4 = call noundef ptr @_ZNKSt7__cxx1112basic_stringIcSt11char_traitsIcESaIcEE7_M_dataEv(ptr noundef nonnull align 8 dereferenceable(32) %3)
  ret ptr %4
}

; Function Attrs: mustprogress uwtable
define linkonce_odr noundef nonnull align 8 dereferenceable(8) ptr @_ZN3nixlsERNS_4SinkEm(ptr noundef nonnull align 8 dereferenceable(8) %0, i64 noundef %1) #5 comdat {
  %3 = alloca ptr, align 8
  %4 = alloca i64, align 8
  %5 = alloca [8 x i8], align 1
  %6 = alloca %"class.std::basic_string_view", align 8
  store ptr %0, ptr %3, align 8
  store i64 %1, ptr %4, align 8
  %7 = load i64, ptr %4, align 8
  %8 = and i64 %7, 255
  %9 = trunc i64 %8 to i8
  %10 = getelementptr inbounds [8 x i8], ptr %5, i64 0, i64 0
  store i8 %9, ptr %10, align 1
  %11 = load i64, ptr %4, align 8
  %12 = lshr i64 %11, 8
  %13 = and i64 %12, 255
  %14 = trunc i64 %13 to i8
  %15 = getelementptr inbounds [8 x i8], ptr %5, i64 0, i64 1
  store i8 %14, ptr %15, align 1
  %16 = load i64, ptr %4, align 8
  %17 = lshr i64 %16, 16
  %18 = and i64 %17, 255
  %19 = trunc i64 %18 to i8
  %20 = getelementptr inbounds [8 x i8], ptr %5, i64 0, i64 2
  store i8 %19, ptr %20, align 1
  %21 = load i64, ptr %4, align 8
  %22 = lshr i64 %21, 24
  %23 = and i64 %22, 255
  %24 = trunc i64 %23 to i8
  %25 = getelementptr inbounds [8 x i8], ptr %5, i64 0, i64 3
  store i8 %24, ptr %25, align 1
  %26 = load i64, ptr %4, align 8
  %27 = lshr i64 %26, 32
  %28 = and i64 %27, 255
  %29 = trunc i64 %28 to i8
  %30 = getelementptr inbounds [8 x i8], ptr %5, i64 0, i64 4
  store i8 %29, ptr %30, align 1
  %31 = load i64, ptr %4, align 8
  %32 = lshr i64 %31, 40
  %33 = and i64 %32, 255
  %34 = trunc i64 %33 to i8
  %35 = getelementptr inbounds [8 x i8], ptr %5, i64 0, i64 5
  store i8 %34, ptr %35, align 1
  %36 = load i64, ptr %4, align 8
  %37 = lshr i64 %36, 48
  %38 = and i64 %37, 255
  %39 = trunc i64 %38 to i8
  %40 = getelementptr inbounds [8 x i8], ptr %5, i64 0, i64 6
  store i8 %39, ptr %40, align 1
  %41 = load i64, ptr %4, align 8
  %42 = lshr i64 %41, 56
  %43 = trunc i64 %42 to i8
  %44 = zext i8 %43 to i32
  %45 = and i32 %44, 255
  %46 = trunc i32 %45 to i8
  %47 = getelementptr inbounds [8 x i8], ptr %5, i64 0, i64 7
  store i8 %46, ptr %47, align 1
  %48 = load ptr, ptr %3, align 8
  %49 = getelementptr inbounds [8 x i8], ptr %5, i64 0, i64 0
  call void @_ZNSt17basic_string_viewIcSt11char_traitsIcEEC2EPKcm(ptr noundef nonnull align 8 dereferenceable(16) %6, ptr noundef %49, i64 noundef 8) #1
  %50 = getelementptr inbounds { i64, ptr }, ptr %6, i32 0, i32 0
  %51 = load i64, ptr %50, align 8
  %52 = getelementptr inbounds { i64, ptr }, ptr %6, i32 0, i32 1
  %53 = load ptr, ptr %52, align 8
  %54 = load ptr, ptr %48, align 8
  %55 = getelementptr inbounds ptr, ptr %54, i64 2
  %56 = load ptr, ptr %55, align 8
  call void %56(ptr noundef nonnull align 8 dereferenceable(8) %48, i64 %51, ptr %53)
  %57 = load ptr, ptr %3, align 8
  ret ptr %57
}

; Function Attrs: mustprogress nounwind uwtable
define linkonce_odr noundef nonnull align 8 dereferenceable(224) ptr @_ZN3nix4PoolINS_11RemoteStore10ConnectionEE6HandledeEv(ptr noundef nonnull align 8 dereferenceable(25) %0) #2 comdat align 2 {
  %2 = alloca ptr, align 8
  store ptr %0, ptr %2, align 8
  %3 = load ptr, ptr %2, align 8
  %4 = getelementptr inbounds %"class.nix::Pool<nix::RemoteStore::Connection>::Handle", ptr %3, i32 0, i32 1
  %5 = call noundef nonnull align 8 dereferenceable(224) ptr @_ZNKSt19__shared_ptr_accessIN3nix11RemoteStore10ConnectionELN9__gnu_cxx12_Lock_policyE2ELb0ELb0EEdeEv(ptr noundef nonnull align 1 dereferenceable(1) %4) #1
  ret ptr %5
}

; Function Attrs: mustprogress uwtable
define linkonce_odr noundef i32 @_ZN3nix7readIntERNS_6SourceE(ptr noundef nonnull align 8 dereferenceable(8) %0) #5 comdat {
  %2 = alloca ptr, align 8
  store ptr %0, ptr %2, align 8
  %3 = load ptr, ptr %2, align 8
  %4 = call noundef i32 @_ZN3nix7readNumIjEET_RNS_6SourceE(ptr noundef nonnull align 8 dereferenceable(8) %3)
  ret i32 %4
}

; Function Attrs: mustprogress nounwind uwtable
define linkonce_odr { i64, ptr } @_ZNKSt7__cxx1112basic_stringIcSt11char_traitsIcESaIcEEcvSt17basic_string_viewIcS2_EEv(ptr noundef nonnull align 8 dereferenceable(32) %0) #2 comdat align 2 {
  %2 = alloca %"class.std::basic_string_view", align 8
  %3 = alloca ptr, align 8
  store ptr %0, ptr %3, align 8
  %4 = load ptr, ptr %3, align 8
  %5 = call noundef ptr @_ZNKSt7__cxx1112basic_stringIcSt11char_traitsIcESaIcEE4dataEv(ptr noundef nonnull align 8 dereferenceable(32) %4) #1
  %6 = call noundef i64 @_ZNKSt7__cxx1112basic_stringIcSt11char_traitsIcESaIcEE4sizeEv(ptr noundef nonnull align 8 dereferenceable(32) %4) #1
  call void @_ZNSt17basic_string_viewIcSt11char_traitsIcEEC2EPKcm(ptr noundef nonnull align 8 dereferenceable(16) %2, ptr noundef %5, i64 noundef %6) #1
  %7 = load { i64, ptr }, ptr %2, align 8
  ret { i64, ptr } %7
}

; Function Attrs: mustprogress uwtable
define linkonce_odr noundef nonnull align 8 dereferenceable(8) ptr @_ZN3nixlsERNS_4SinkENS_11WorkerProto2OpE(ptr noundef nonnull align 8 dereferenceable(8) %0, i64 noundef %1) #5 comdat {
  %3 = alloca ptr, align 8
  %4 = alloca i64, align 8
  store ptr %0, ptr %3, align 8
  store i64 %1, ptr %4, align 8
  %5 = load ptr, ptr %3, align 8
  %6 = load i64, ptr %4, align 8
  %7 = call noundef nonnull align 8 dereferenceable(8) ptr @_ZN3nixlsERNS_4SinkEm(ptr noundef nonnull align 8 dereferenceable(8) %5, i64 noundef %6)
  ret ptr %7
}

; Function Attrs: mustprogress uwtable
define linkonce_odr noundef ptr @_ZN3nix11RemoteStore16ConnectionHandleptEv(ptr noundef nonnull align 8 dereferenceable(33) %0) #5 comdat align 2 {
  %2 = alloca ptr, align 8
  store ptr %0, ptr %2, align 8
  %3 = load ptr, ptr %2, align 8
  %4 = getelementptr inbounds %"struct.nix::RemoteStore::ConnectionHandle", ptr %3, i32 0, i32 0
  %5 = call noundef nonnull align 8 dereferenceable(224) ptr @_ZN3nix4PoolINS_11RemoteStore10ConnectionEE6HandledeEv(ptr noundef nonnull align 8 dereferenceable(25) %4)
  ret ptr %5
}

; Function Attrs: mustprogress uwtable
define void @_ZN3nix11RemoteStore11addTempRootERKNS_9StorePathE(ptr noundef nonnull align 8 dereferenceable(25) %0, ptr noundef nonnull align 8 dereferenceable(32) %1) unnamed_addr #5 align 2 personality ptr @__gxx_personality_v0 {
  %3 = alloca ptr, align 8
  %4 = alloca ptr, align 8
  %5 = alloca %"struct.nix::RemoteStore::ConnectionHandle", align 8
  %6 = alloca ptr, align 8
  %7 = alloca i32, align 4
  %8 = alloca %"class.std::basic_string_view", align 8
  %9 = alloca %"class.std::__cxx11::basic_string", align 8
  store ptr %0, ptr %3, align 8
  store ptr %1, ptr %4, align 8
  %10 = load ptr, ptr %3, align 8
  call void @_ZN3nix11RemoteStore13getConnectionEv(ptr dead_on_unwind writable sret(%"struct.nix::RemoteStore::ConnectionHandle") align 8 %5, ptr noundef nonnull align 8 dereferenceable(25) %10)
  %11 = invoke noundef ptr @_ZN3nix11RemoteStore16ConnectionHandleptEv(ptr noundef nonnull align 8 dereferenceable(33) %5)
          to label %12 unwind label %43

12:                                               ; preds = %2
  %13 = getelementptr inbounds %"struct.nix::RemoteStore::Connection", ptr %11, i32 0, i32 1
  %14 = load ptr, ptr %13, align 8
  %15 = getelementptr i8, ptr %14, i64 -48
  %16 = load i64, ptr %15, align 8
  %17 = getelementptr inbounds i8, ptr %13, i64 %16
  %18 = invoke noundef nonnull align 8 dereferenceable(8) ptr @_ZN3nixlsERNS_4SinkENS_11WorkerProto2OpE(ptr noundef nonnull align 8 dereferenceable(8) %17, i64 noundef 11)
          to label %19 unwind label %43

19:                                               ; preds = %12
  %20 = load ptr, ptr %10, align 8
  %21 = getelementptr i8, ptr %20, i64 -32
  %22 = load i64, ptr %21, align 8
  %23 = getelementptr inbounds i8, ptr %10, i64 %22
  %24 = load ptr, ptr %4, align 8
  invoke void @_ZNK3nix14StoreDirConfig14printStorePathB5cxx11ERKNS_9StorePathE(ptr dead_on_unwind writable sret(%"class.std::__cxx11::basic_string") align 8 %9, ptr noundef nonnull align 8 dereferenceable(344) %23, ptr noundef nonnull align 8 dereferenceable(32) %24)
          to label %25 unwind label %43

25:                                               ; preds = %19
  %26 = call { i64, ptr } @_ZNKSt7__cxx1112basic_stringIcSt11char_traitsIcESaIcEEcvSt17basic_string_viewIcS2_EEv(ptr noundef nonnull align 8 dereferenceable(32) %9) #1
  %27 = getelementptr inbounds { i64, ptr }, ptr %8, i32 0, i32 0
  %28 = extractvalue { i64, ptr } %26, 0
  store i64 %28, ptr %27, align 8
  %29 = getelementptr inbounds { i64, ptr }, ptr %8, i32 0, i32 1
  %30 = extractvalue { i64, ptr } %26, 1
  store ptr %30, ptr %29, align 8
  %31 = getelementptr inbounds { i64, ptr }, ptr %8, i32 0, i32 0
  %32 = load i64, ptr %31, align 8
  %33 = getelementptr inbounds { i64, ptr }, ptr %8, i32 0, i32 1
  %34 = load ptr, ptr %33, align 8
  %35 = invoke noundef nonnull align 8 dereferenceable(8) ptr @_ZN3nixlsERNS_4SinkESt17basic_string_viewIcSt11char_traitsIcEE(ptr noundef nonnull align 8 dereferenceable(8) %18, i64 %32, ptr %34)
          to label %36 unwind label %47

36:                                               ; preds = %25
  call void @_ZNSt7__cxx1112basic_stringIcSt11char_traitsIcESaIcEED2Ev(ptr noundef nonnull align 8 dereferenceable(32) %9) #1
  invoke void @_ZN3nix11RemoteStore16ConnectionHandle13processStderrEPNS_4SinkEPNS_6SourceEb(ptr noundef nonnull align 8 dereferenceable(33) %5, ptr noundef null, ptr noundef null, i1 noundef zeroext true)
          to label %37 unwind label %43

37:                                               ; preds = %36
  %38 = invoke noundef ptr @_ZN3nix11RemoteStore16ConnectionHandleptEv(ptr noundef nonnull align 8 dereferenceable(33) %5)
          to label %39 unwind label %43

39:                                               ; preds = %37
  %40 = getelementptr inbounds %"struct.nix::RemoteStore::Connection", ptr %38, i32 0, i32 2
  %41 = invoke noundef i32 @_ZN3nix7readIntERNS_6SourceE(ptr noundef nonnull align 8 dereferenceable(8) %40)
          to label %42 unwind label %43

42:                                               ; preds = %39
  call void @_ZN3nix11RemoteStore16ConnectionHandleD1Ev(ptr noundef nonnull align 8 dereferenceable(33) %5) #1
  ret void

43:                                               ; preds = %39, %37, %36, %19, %12, %2
  %44 = landingpad { ptr, i32 }
          cleanup
  %45 = extractvalue { ptr, i32 } %44, 0
  store ptr %45, ptr %6, align 8
  %46 = extractvalue { ptr, i32 } %44, 1
  store i32 %46, ptr %7, align 4
  br label %51

47:                                               ; preds = %25
  %48 = landingpad { ptr, i32 }
          cleanup
  %49 = extractvalue { ptr, i32 } %48, 0
  store ptr %49, ptr %6, align 8
  %50 = extractvalue { ptr, i32 } %48, 1
  store i32 %50, ptr %7, align 4
  call void @_ZNSt7__cxx1112basic_stringIcSt11char_traitsIcESaIcEED2Ev(ptr noundef nonnull align 8 dereferenceable(32) %9) #1
  br label %51

51:                                               ; preds = %47, %43
  call void @_ZN3nix11RemoteStore16ConnectionHandleD1Ev(ptr noundef nonnull align 8 dereferenceable(33) %5) #1
  br label %52

52:                                               ; preds = %51
  %53 = load ptr, ptr %6, align 8
  %54 = load i32, ptr %7, align 4
  %55 = insertvalue { ptr, i32 } poison, ptr %53, 0
  %56 = insertvalue { ptr, i32 } %55, i32 %54, 1
  resume { ptr, i32 } %56
}